; Function Attrs: mustprogress nofree nounwind willreturn memory(write, argmem: readwrite) uwtable
define internal { double, double } @_ZL14cass_s_forward5PJ_LPP8PJconsts(double %0, double %1, ptr noundef readonly captures(none) %2) #2 {
  %4 = tail call double @cos(double noundef %1) #8, !tbaa !50
  %5 = tail call double @sin(double noundef %0) #8, !tbaa !50
  %6 = fmul double %4, %5
  %7 = tail call double @asin(double noundef %6) #8, !tbaa !50
  %8 = tail call double @tan(double noundef %1) #8, !tbaa !50
  %9 = tail call double @cos(double noundef %0) #8, !tbaa !50
  %10 = tail call double @atan2(double noundef %8, double noundef %9) #8, !tbaa !50
  %11 = getelementptr inbounds nuw i8, ptr %2, i64 448
  %12 = load double, ptr %11, align 8, !tbaa !49
  %13 = fsub double %10, %12
  %.fca.0.insert = insertvalue { double, double } poison, double %7, 0
  %.fca.1.insert = insertvalue { double, double } %.fca.0.insert, double %13, 1
  ret { double, double } %.fca.1.insert
}